target datalayout = "e-m:e-p270:32:32-p271:32:32-p272:64:64-i64:64-i128:128-f80:128-n8:16:32:64-S128"
target triple = "x86_64-unknown-linux-gnu"

; Function Attrs: mustprogress uwtable
define hidden void @_ZN7datalog11rel_context14store_relationEP9func_declPNS_13relation_baseE(ptr noundef nonnull align 8 dereferenceable(432) %this, ptr noundef %pred, ptr noundef %rel) unnamed_addr #4 align 2 {
entry:
  %this.addr = alloca ptr, align 8
  %pred.addr = alloca ptr, align 8
  %rel.addr = alloca ptr, align 8
  store ptr %this, ptr %this.addr, align 8
  store ptr %pred, ptr %pred.addr, align 8
  store ptr %rel, ptr %rel.addr, align 8
  %this1 = load ptr, ptr %this.addr, align 8
  %vtable = load ptr, ptr %this1, align 8
  %vfn = getelementptr inbounds ptr, ptr %vtable, i64 24
  %0 = load ptr, ptr %vfn, align 8
  %call = call noundef nonnull align 8 dereferenceable(200) ptr %0(ptr noundef nonnull align 8 dereferenceable(432) %this1)
  %1 = load ptr, ptr %pred.addr, align 8
  %2 = load ptr, ptr %rel.addr, align 8
  call void @_ZN7datalog16relation_manager14store_relationEP9func_declPNS_13relation_baseE(ptr noundef nonnull align 8 dereferenceable(200) %call, ptr noundef %1, ptr noundef %2)
  ret void
}