; Function Attrs: mustprogress uwtable
define hidden void @_ZN7datalog11rel_context14store_relationEP9func_declPNS_13relation_baseE(ptr noundef nonnull align 8 dereferenceable(432) %this, ptr noundef %pred, ptr noundef %rel) unnamed_addr #3 align 2 {
entry:
  %vtable = load ptr, ptr %this, align 8
  %vfn = getelementptr inbounds i8, ptr %vtable, i64 192
  %0 = load ptr, ptr %vfn, align 8
  %call = tail call noundef nonnull align 8 dereferenceable(200) ptr %0(ptr noundef nonnull align 8 dereferenceable(432) %this)
  tail call void @_ZN7datalog16relation_manager14store_relationEP9func_declPNS_13relation_baseE(ptr noundef nonnull align 8 dereferenceable(200) %call, ptr noundef %pred, ptr noundef %rel)
  ret void
}